Certificate:
    Data:
        Version: 3 (0x2)
        Serial Number: 1 (0x1)
        Signature Algorithm: sha256WithRSAEncryption
        Issuer: CN=devcert
        Validity
            Not Before: Jan  6 10:26:30 2025 GMT
            Not After : Apr 11 10:26:30 2027 GMT
        Subject: CN=localhost
        Subject Public Key Info:
            Public Key Algorithm: rsaEncryption
                Public-Key: (2048 bit)
                Modulus:
                    00:d3:24:83:b5:74:df:75:80:99:ae:64:71:da:83:
                    00:c5:ae:59:e2:27:4b:d1:ea:22:51:9a:dc:72:62:
                    c4:50:a5:8d:72:2c:37:ce:e8:f4:0d:2e:bd:ab:01:
                    58:4e:9a:ac:35:07:c8:38:de:cb:d4:05:72:b5:04:
                    88:86:7a:2a:e6:07:96:5e:dc:8f:27:36:f8:d4:64:
                    9c:82:5b:4a:dd:f6:87:92:52:e4:ca:80:fa:5d:59:
                    28:36:2d:f2:15:45:8e:06:d0:cd:cf:f6:2b:95:aa:
                    e4:4f:b3:61:34:1f:3f:d9:02:3c:8a:d1:97:9b:34:
                    84:88:77:2b:2b:c0:c1:a5:8a:b1:1b:0d:f7:c3:ab:
                    e2:06:96:3a:6c:3d:1e:72:f1:1f:ed:81:68:1e:cb:
                    f7:a8:b3:09:b1:19:db:1f:79:c8:f4:b2:7a:24:52:
                    48:51:46:2a:11:64:45:5f:b6:98:56:fb:15:97:a6:
                    4d:6c:9f:04:24:a4:68:fe:33:57:c0:40:25:f0:db:
                    17:b1:7f:d4:46:d4:9b:38:96:53:ca:92:42:f4:44:
                    27:ad:15:da:4b:2d:82:3c:27:c7:41:73:09:ae:91:
                    38:a8:fd:fe:f3:da:35:c7:cd:88:b4:0b:6d:45:66:
                    a7:3c:31:d9:01:d4:8b:3b:bb:c7:b6:33:43:96:33:
                    6a:99
                Exponent: 65537 (0x10001)
        X509v3 extensions:
            X509v3 Basic Constraints: critical
                CA:FALSE
            X509v3 Subject Key Identifier: 
                4B:F9:11:AC:7C:39:18:37:B1:E3:C4:8D:93:2E:B4:7D:C4:AA:45:4A
            X509v3 Authority Key Identifier: 
                keyid:43:E1:0D:94:32:C8:22:BE:2A:63:9C:20:40:86:9D:12:C9:4B:61:8C
                DirName:/CN=devcert
                serial:24:C0:A8:4F:F7:7C:DF:0F:50:AC:21:D4:15:78:CE:02:6D:68:FE:CA
            X509v3 Key Usage: critical
                Digital Signature, Key Encipherment
            X509v3 Extended Key Usage: 
                TLS Web Server Authentication
            X509v3 Subject Alternative Name: 
                DNS:localhost, DNS:*.localhost
    Signature Algorithm: sha256WithRSAEncryption
    Signature Value:
        95:88:a3:68:eb:e5:40:1d:fd:a2:ca:7d:9f:52:56:8e:a9:e2:
        2b:1c:86:41:4d:d8:ce:8b:a1:1a:32:ef:70:97:e4:ff:02:17:
        0a:36:63:14:0a:cb:73:ca:07:c8:56:5d:b4:0b:82:f6:b7:9f:
        91:4d:7c:66:6c:32:da:e7:9f:c6:54:c1:0b:ec:8a:c7:94:50:
        f7:f9:f7:5f:f5:2a:6f:91:c6:1b:1a:c5:21:0d:55:aa:2b:a9:
        ff:a3:f7:b1:3d:0e:d6:22:47:c2:79:e6:de:51:e9:52:ea:4f:
        fc:8e:b0:57:08:d2:4e:3b:41:53:63:ec:b6:54:7e:a7:65:df:
        37:bc:4e:36:5e:fd:d0:1d:ff:07:48:12:0c:f0:a8:60:16:e9:
        83:25:f9:35:3a:60:72:f7:f9:97:60:db:af:a7:61:f1:d5:66:
        3c:d5:54:0e:fd:5b:ba:c8:7e:26:84:6a:42:8f:90:36:3c:cc:
        23:14:73:29:cc:61:a5:74:54:79:56:86:8a:32:7c:55:db:e6:
        83:3b:6c:e5:b1:b2:0c:3e:9f:2c:48:12:01:c7:e9:e0:36:ae:
        aa:26:ae:31:e9:c5:38:d2:67:5d:5b:35:7e:7f:a7:c8:08:b8:
        39:c1:d1:f8:66:ef:9c:74:a5:27:36:f3:cf:84:98:5c:05:6f:
        97:db:81:62
-----BEGIN CERTIFICATE-----
MIIDaTCCAlGgAwIBAgIBATANBgkqhkiG9w0BAQsFADASMRAwDgYDVQQDDAdkZXZj
ZXJ0MB4XDTI1MDEwNjEwMjYzMFoXDTI3MDQxMTEwMjYzMFowFDESMBAGA1UEAwwJ
bG9jYWxob3N0MIIBIjANBgkqhkiG9w0BAQEFAAOCAQ8AMIIBCgKCAQEA0ySDtXTf
dYCZrmRx2oMAxa5Z4idL0eoiUZrccmLEUKWNciw3zuj0DS69qwFYTpqsNQfION7L
1AVytQSIhnoq5geWXtyPJzb41GScgltK3faHklLkyoD6XVkoNi3yFUWOBtDNz/Yr
larkT7NhNB8/2QI8itGXmzSEiHcrK8DBpYqxGw33w6viBpY6bD0ecvEf7YFoHsv3
qLMJsRnbH3nI9LJ6JFJIUUYqEWRFX7aYVvsVl6ZNbJ8EJKRo/jNXwEAl8NsXsX/U
RtSbOJZTypJC9EQnrRXaSy2CPCfHQXMJrpE4qP3+89o1x82ItAttRWanPDHZAdSL
O7vHtjNDljNqmQIDAQABo4HHMIHEMAwGA1UdEwEB/wQCMAAwHQYDVR0OBBYEFEv5
Eax8ORg3sePEjZMutH3EqkVKME0GA1UdIwRGMESAFEPhDZQyyCK+KmOcIECGnRLJ
S2GMoRakFDASMRAwDgYDVQQDDAdkZXZjZXJ0ghQkwKhP93zfD1CsIdQVeM4CbWj+
yjAOBgNVHQ8BAf8EBAMCBaAwEwYDVR0lBAwwCgYIKwYBBQUHAwEwIQYDVR0RBBow
GIIJbG9jYWxob3N0ggsqLmxvY2FsaG9zdDANBgkqhkiG9w0BAQsFAAOCAQEAlYij
aOvlQB39osp9n1JWjqniKxyGQU3YzouhGjLvcJfk/wIXCjZjFArLc8oHyFZdtAuC
9refkU18Zmwy2uefxlTBC+yKx5RQ9/n3X/Uqb5HGGxrFIQ1Vqiup/6P3sT0O1iJH
wnnm3lHpUupP/I6wVwjSTjtBU2PstlR+p2XfN7xONl790B3/B0gSDPCoYBbpgyX5
NTpgcvf5l2Dbr6dh8dVmPNVUDv1bush+JoRqQo+QNjzMIxRzKcxhpXRUeVaGijJ8
Vdvmgzts5bGyDD6fLEgSAcfp4DauqiauMenFONJnXVs1fn+nyAi4OcHR+GbvnHSl
Jzbzz4SYXAVvl9uBYg==
-----END CERTIFICATE-----
